; Function Attrs: nounwind uwtable
define hidden void @zif_crc32(ptr noundef %0, ptr nocapture noundef writeonly %1) local_unnamed_addr #0 {
  %3 = alloca i32, align 4
  %4 = alloca ptr, align 8
  %5 = getelementptr inbounds i8, ptr %0, i64 44
  %6 = load i32, ptr %5, align 4
  %cond = icmp eq i32 %6, 1
  br i1 %cond, label %7, label %.thread81

.thread81:                                        ; preds = %2
  tail call void @zend_wrong_parameters_count_error(i32 noundef 1, i32 noundef 1) #4
  br label %15

7:                                                ; preds = %2
  %8 = getelementptr inbounds i8, ptr %0, i64 80
  %9 = getelementptr inbounds i8, ptr %0, i64 88
  %10 = load i8, ptr %9, align 8
  %11 = icmp eq i8 %10, 6
  br i1 %11, label %.thread, label %13

.thread:                                          ; preds = %7
  %12 = load ptr, ptr %8, align 8
  store ptr %12, ptr %4, align 8
  br label %16

13:                                               ; preds = %7
  %14 = call zeroext i1 @zend_parse_arg_str_slow(ptr noundef nonnull %8, ptr noundef nonnull %4, i32 noundef 1) #4
  br i1 %14, label %._crit_edge, label %15

._crit_edge:                                      ; preds = %13
  %.pre = load ptr, ptr %4, align 8
  br label %16

15:                                               ; preds = %13, %.thread81
  %.06492 = phi i32 [ 1, %.thread81 ], [ 9, %13 ]
  %.06691 = phi i32 [ 0, %.thread81 ], [ 1, %13 ]
  %.06790 = phi i32 [ 0, %.thread81 ], [ 4, %13 ]
  %.06889 = phi ptr [ null, %.thread81 ], [ %8, %13 ]
  call void @zend_wrong_parameter_error(i32 noundef %.06492, i32 noundef %.06691, ptr noundef null, i32 noundef %.06790, ptr noundef %.06889) #4
  br label %37

16:                                               ; preds = %._crit_edge, %.thread
  %17 = phi ptr [ %.pre, %._crit_edge ], [ %12, %.thread ]
  %18 = getelementptr inbounds i8, ptr %17, i64 16
  %19 = load i64, ptr %18, align 8
  %20 = getelementptr inbounds i8, ptr %17, i64 24
  call void @llvm.lifetime.start.p0(i64 4, ptr nonnull %3)
  store i32 -1, ptr %3, align 4
  %21 = call i64 @crc32_x86_simd_update(i32 noundef 1, ptr noundef nonnull %3, ptr noundef nonnull %20, i64 noundef %19) #4
  %22 = sub i64 %19, %21
  %.promoted.i = load i32, ptr %3, align 4
  %.not9.i = icmp eq i64 %22, 0
  br i1 %.not9.i, label %php_crc32_bulk_update.exit, label %.lr.ph.preheader.i

.lr.ph.preheader.i:                               ; preds = %16
  %23 = getelementptr inbounds i8, ptr %20, i64 %21
  br label %.lr.ph.i

.lr.ph.i:                                         ; preds = %.lr.ph.i, %.lr.ph.preheader.i
  %.011.i = phi ptr [ %32, %.lr.ph.i ], [ %23, %.lr.ph.preheader.i ]
  %.0810.i = phi i64 [ %25, %.lr.ph.i ], [ %22, %.lr.ph.preheader.i ]
  %24 = phi i32 [ %31, %.lr.ph.i ], [ %.promoted.i, %.lr.ph.preheader.i ]
  %25 = add i64 %.0810.i, -1
  %26 = lshr i32 %24, 8
  %27 = load i8, ptr %.011.i, align 1
  %.tr.i = trunc i32 %24 to i8
  %.narrow.i = xor i8 %27, %.tr.i
  %28 = zext i8 %.narrow.i to i64
  %29 = getelementptr inbounds [256 x i32], ptr @crc32tab, i64 0, i64 %28
  %30 = load i32, ptr %29, align 4
  %31 = xor i32 %30, %26
  %32 = getelementptr inbounds i8, ptr %.011.i, i64 1
  %.not.i = icmp eq i64 %25, 0
  br i1 %.not.i, label %php_crc32_bulk_update.exit, label %.lr.ph.i

php_crc32_bulk_update.exit:                       ; preds = %.lr.ph.i, %16
  %33 = phi i32 [ %.promoted.i, %16 ], [ %31, %.lr.ph.i ]
  call void @llvm.lifetime.end.p0(i64 4, ptr nonnull %3)
  %34 = xor i32 %33, -1
  %35 = zext i32 %34 to i64
  store i64 %35, ptr %1, align 8
  %36 = getelementptr inbounds i8, ptr %1, i64 8
  store i32 4, ptr %36, align 8
  br label %37

37:                                               ; preds = %php_crc32_bulk_update.exit, %15
  ret void
}